ARM GAS  C:\Users\rpbri\AppData\Local\Temp\ccb6sQes.s 			page 1


   1              		.syntax unified
   2              		.cpu cortex-m0plus
   3              		.fpu softvfp
   4              		.eabi_attribute 20, 1
   5              		.eabi_attribute 21, 1
   6              		.eabi_attribute 23, 3
   7              		.eabi_attribute 24, 1
   8              		.eabi_attribute 25, 1
   9              		.eabi_attribute 26, 1
  10              		.eabi_attribute 30, 1
  11              		.eabi_attribute 34, 0
  12              		.eabi_attribute 18, 4
  13              		.thumb
  14              		.syntax unified
  15              		.file	"main.c"
  16              		.text
  17              	.Ltext0:
  18              		.cfi_sections	.debug_frame
  19              		.global	__aeabi_dcmpge
  20              		.global	__aeabi_dsub
  21              		.global	__aeabi_dmul
  22              		.global	__aeabi_d2iz
  23              		.section	.text.Pin_ZC_Handler,"ax",%progbits
  24              		.align	2
  25              		.global	Pin_ZC_Handler
  26              		.code	16
  27              		.thumb_func
  28              		.type	Pin_ZC_Handler, %function
  29              	Pin_ZC_Handler:
  30              	.LFB33:
  31              		.file 1 "main.c"
   1:main.c        **** /******************************************************************************
   2:main.c        **** * File Name: main.c
   3:main.c        **** *
   4:main.c        **** * Version: 1.10
   5:main.c        **** *
   6:main.c        **** * Description:  This code example demonstrates a CapSense linear slider with
   7:main.c        **** * five segments and three CapSense buttons operation. CapSense linear slider and
   8:main.c        **** * buttons data is sent to CapSense Tuner or EZ-BLE PRoC Module using I2C communication.
   9:main.c        **** * The CapSense linear slider touch position and buttons status is used to turn ON/OFF
  10:main.c        **** * corresponding LEDs on the kit. It also demonstrates connectivity between the
  11:main.c        **** * EZ-BLE PRoC Module (acting as a Peripheral and GATT server device) and mobile device
  12:main.c        **** * running the CySmart mobile application (acting as a Central and GATT client device).
  13:main.c        **** * This code example also demonstrates a simple breathing effect of LED with breath-in
  14:main.c        **** * and breath-out rate of 1 Hz using SmartIO and PWM components.
  15:main.c        **** *
  16:main.c        **** * Related Document: CE210709 CapSense Linear Slider and Buttons.pdf
  17:main.c        **** *
  18:main.c        **** * Hardware Dependency: See CE210709 CapSense Linear Slider and Buttons.pdf
  19:main.c        **** *
  20:main.c        **** *******************************************************************************
  21:main.c        **** * Copyright (2018), Cypress Semiconductor Corporation. All rights reserved.
  22:main.c        **** *******************************************************************************
  23:main.c        **** * This software, including source code, documentation and related materials
  24:main.c        **** * (“Software”), is owned by Cypress Semiconductor Corporation or one of its
  25:main.c        **** * subsidiaries (“Cypress”) and is protected by and subject to worldwide patent
  26:main.c        **** * protection (United States and foreign), United States copyright laws and
ARM GAS  C:\Users\rpbri\AppData\Local\Temp\ccb6sQes.s 			page 2


  27:main.c        **** * international treaty provisions. Therefore, you may use this Software only
  28:main.c        **** * as provided in the license agreement accompanying the software package from
  29:main.c        **** * which you obtained this Software (“EULA”).
  30:main.c        **** *
  31:main.c        **** * If no EULA applies, Cypress hereby grants you a personal, nonexclusive,
  32:main.c        **** * non-transferable license to copy, modify, and compile the Software source
  33:main.c        **** * code solely for use in connection with Cypress’s integrated circuit products.
  34:main.c        **** * Any reproduction, modification, translation, compilation, or representation
  35:main.c        **** * of this Software except as specified above is prohibited without the express
  36:main.c        **** * written permission of Cypress.
  37:main.c        **** *
  38:main.c        **** * Disclaimer: THIS SOFTWARE IS PROVIDED AS-IS, WITH NO WARRANTY OF ANY KIND, 
  39:main.c        **** * EXPRESS OR IMPLIED, INCLUDING, BUT NOT LIMITED TO, NONINFRINGEMENT, IMPLIED 
  40:main.c        **** * WARRANTIES OF MERCHANTABILITY AND FITNESS FOR A PARTICULAR PURPOSE. Cypress 
  41:main.c        **** * reserves the right to make changes to the Software without notice. Cypress 
  42:main.c        **** * does not assume any liability arising out of the application or use of the 
  43:main.c        **** * Software or any product or circuit described in the Software. Cypress does 
  44:main.c        **** * not authorize its products for use in any products where a malfunction or 
  45:main.c        **** * failure of the Cypress product may reasonably be expected to result in 
  46:main.c        **** * significant property damage, injury or death (“High Risk Product”). By 
  47:main.c        **** * including Cypress’s product in a High Risk Product, the manufacturer of such 
  48:main.c        **** * system or application assumes all risk of such use and in doing so agrees to 
  49:main.c        **** * indemnify Cypress against all liability.
  50:main.c        **** *******************************************************************************/
  51:main.c        **** /*******************************************************************************
  52:main.c        **** *   Included Headers
  53:main.c        **** *******************************************************************************/
  54:main.c        **** #include "CapSense.h"
  55:main.c        **** #include <project.h>
  56:main.c        **** 
  57:main.c        **** /*****************************************************************************
  58:main.c        **** * MACRO Definitions
  59:main.c        **** *****************************************************************************/     
  60:main.c        **** 
  61:main.c        **** /* Boolean constants */
  62:main.c        **** #define LED_ON						(0u)
  63:main.c        **** #define LED_OFF						(1u)
  64:main.c        **** 
  65:main.c        **** /* Finite state machine states for device operating states 
  66:main.c        ****     SENSOR_SCAN - Sensors are scanned in this state
  67:main.c        ****     WAIT_FOR_SCAN_COMPLETE - CPU is put to sleep in this state
  68:main.c        ****     PROCESS_DATA - Sensor data is processed, LEDs are controlled */
  69:main.c        **** typedef enum
  70:main.c        **** {
  71:main.c        ****     SENSOR_SCAN = 0x01u,                
  72:main.c        ****     WAIT_FOR_SCAN_COMPLETE = 0x02u,     
  73:main.c        ****     PROCESS_DATA = 0x03u,               
  74:main.c        **** } DEVICE_STATE;
  75:main.c        **** 
  76:main.c        **** /* Defining step size for LED control based on centroid position of slider. */
  77:main.c        **** #define STEP_SIZE (CapSense_SLD_X_RESOLUTION/CapSense_SLD_NUM_SENSORS)
  78:main.c        **** 
  79:main.c        **** //uint32_t pwmValue;
  80:main.c        **** volatile double value;
  81:main.c        **** 
  82:main.c        **** CY_ISR( Pin_ZC_Handler )
  83:main.c        **** {
ARM GAS  C:\Users\rpbri\AppData\Local\Temp\ccb6sQes.s 			page 3


  32              		.loc 1 83 0
  33              		.cfi_startproc
  34              		@ args = 0, pretend = 0, frame = 0
  35              		@ frame_needed = 0, uses_anonymous_args = 0
  36 0000 10B5     		push	{r4, lr}
  37              		.cfi_def_cfa_offset 8
  38              		.cfi_offset 4, -8
  39              		.cfi_offset 14, -4
  84:main.c        ****     // 1 full 60hz wave = 1/60 = 16.667ms
  85:main.c        ****     // 1 zero cross = 1/2 wave = 8.333ms
  86:main.c        ****     // 8.333ms = 83333us
  87:main.c        ****     // (8333us-10us)/1 = 8323
  88:main.c        ****     if(value >= 0.05)
  40              		.loc 1 88 0
  41 0002 124B     		ldr	r3, .L5
  42 0004 1868     		ldr	r0, [r3]
  43 0006 5968     		ldr	r1, [r3, #4]
  44 0008 114A     		ldr	r2, .L5+4
  45 000a 124B     		ldr	r3, .L5+8
  46 000c FFF7FEFF 		bl	__aeabi_dcmpge
  47              	.LVL0:
  48 0010 0028     		cmp	r0, #0
  49 0012 18D0     		beq	.L2
  50              	.LBB2:
  89:main.c        ****     {
  90:main.c        ****         int dimAmount = 8323.33*(1.25-value);
  51              		.loc 1 90 0
  52 0014 0D4B     		ldr	r3, .L5
  53 0016 1A68     		ldr	r2, [r3]
  54 0018 5B68     		ldr	r3, [r3, #4]
  55 001a 0020     		movs	r0, #0
  56 001c 0E49     		ldr	r1, .L5+12
  57 001e FFF7FEFF 		bl	__aeabi_dsub
  58              	.LVL1:
  59 0022 0E4A     		ldr	r2, .L5+16
  60 0024 0E4B     		ldr	r3, .L5+20
  61 0026 FFF7FEFF 		bl	__aeabi_dmul
  62              	.LVL2:
  63 002a FFF7FEFF 		bl	__aeabi_d2iz
  64              	.LVL3:
  91:main.c        ****         CyDelayUs(dimAmount);
  65              		.loc 1 91 0
  66 002e 80B2     		uxth	r0, r0
  67              	.LVL4:
  68 0030 FFF7FEFF 		bl	CyDelayUs
  69              	.LVL5:
  92:main.c        ****         Pin_LC_Write(1u);
  70              		.loc 1 92 0
  71 0034 0120     		movs	r0, #1
  72 0036 FFF7FEFF 		bl	Pin_LC_Write
  73              	.LVL6:
  93:main.c        ****         CyDelayUs(10);
  74              		.loc 1 93 0
  75 003a 0A20     		movs	r0, #10
  76 003c FFF7FEFF 		bl	CyDelayUs
  77              	.LVL7:
  94:main.c        ****         Pin_LC_Write(0u);
ARM GAS  C:\Users\rpbri\AppData\Local\Temp\ccb6sQes.s 			page 4


  78              		.loc 1 94 0
  79 0040 0020     		movs	r0, #0
  80 0042 FFF7FEFF 		bl	Pin_LC_Write
  81              	.LVL8:
  82              	.L2:
  83              	.LBE2:
  95:main.c        ****     }
  96:main.c        ****     
  97:main.c        ****     Pin_ZC_ClearInterrupt();
  84              		.loc 1 97 0
  85 0046 FFF7FEFF 		bl	Pin_ZC_ClearInterrupt
  86              	.LVL9:
  98:main.c        **** }
  87              		.loc 1 98 0
  88              		@ sp needed
  89 004a 10BD     		pop	{r4, pc}
  90              	.L6:
  91              		.align	2
  92              	.L5:
  93 004c 00000000 		.word	value
  94 0050 9A999999 		.word	-1717986918
  95 0054 9999A93F 		.word	1068079513
  96 0058 0000F43F 		.word	1072955392
  97 005c D7A3703D 		.word	1030792151
  98 0060 AA41C040 		.word	1086341546
  99              		.cfi_endproc
 100              	.LFE33:
 101              		.size	Pin_ZC_Handler, .-Pin_ZC_Handler
 102              		.global	__aeabi_ui2d
 103              		.global	__aeabi_ddiv
 104              		.section	.text.main,"ax",%progbits
 105              		.align	2
 106              		.global	main
 107              		.code	16
 108              		.thumb_func
 109              		.type	main, %function
 110              	main:
 111              	.LFB34:
  99:main.c        **** 
 100:main.c        **** int main()
 101:main.c        **** {	
 112              		.loc 1 101 0
 113              		.cfi_startproc
 114              		@ args = 0, pretend = 0, frame = 0
 115              		@ frame_needed = 0, uses_anonymous_args = 0
 116 0000 70B5     		push	{r4, r5, r6, lr}
 117              		.cfi_def_cfa_offset 16
 118              		.cfi_offset 4, -16
 119              		.cfi_offset 5, -12
 120              		.cfi_offset 6, -8
 121              		.cfi_offset 14, -4
 122              	.LVL10:
 102:main.c        ****     /* Variable to hold the current device state 
 103:main.c        ****     *  State machine starts with sensor scan state after power-up
 104:main.c        ****     */
 105:main.c        ****     DEVICE_STATE currentState = SENSOR_SCAN;  
 106:main.c        ****     
ARM GAS  C:\Users\rpbri\AppData\Local\Temp\ccb6sQes.s 			page 5


 107:main.c        ****     /* Enable global interrupts. */
 108:main.c        ****     CyGlobalIntEnable; 
 123              		.loc 1 108 0
 124              		.syntax divided
 125              	@ 108 "main.c" 1
 126 0002 62B6     		CPSIE   i
 127              	@ 0 "" 2
 109:main.c        ****         
 110:main.c        ****     /* Start CapSense block */
 111:main.c        ****     CapSense_Start();
 128              		.loc 1 111 0
 129              		.thumb
 130              		.syntax unified
 131 0004 FFF7FEFF 		bl	CapSense_Start
 132              	.LVL11:
 112:main.c        ****     
 113:main.c        ****     /* Start the light driver interrupt. */
 114:main.c        ****     Pin_ZC_Int_StartEx( Pin_ZC_Handler );
 133              		.loc 1 114 0
 134 0008 4A48     		ldr	r0, .L22
 135 000a FFF7FEFF 		bl	Pin_ZC_Int_StartEx
 136              	.LVL12:
 105:main.c        ****     
 137              		.loc 1 105 0
 138 000e 0124     		movs	r4, #1
 139 0010 00E0     		b	.L9
 140              	.LVL13:
 141              	.L21:
 142              	.LBB3:
 115:main.c        ****      			
 116:main.c        ****     for(;;)
 117:main.c        ****     {
 118:main.c        ****         /* Switch between SENSOR_SCAN->WAIT_FOR_SCAN_COMPLETE->PROCESS_DATA states */
 119:main.c        ****         switch(currentState)
 120:main.c        ****         {
 121:main.c        ****             case SENSOR_SCAN:
 122:main.c        **** 	            /* Initiate new scan only if the CapSense block is idle */
 123:main.c        ****                 if(CapSense_NOT_BUSY == CapSense_IsBusy())
 124:main.c        ****                 {
 125:main.c        ****                     /* Scan widget configured by CSDSetupWidget API */
 126:main.c        ****                     CapSense_ScanAllWidgets();
 127:main.c        ****                                         
 128:main.c        ****                     /* Set next state to WAIT_FOR_SCAN_COMPLETE  */
 129:main.c        ****                     currentState = WAIT_FOR_SCAN_COMPLETE;
 130:main.c        ****                 }
 131:main.c        ****                 break;
 132:main.c        **** 
 133:main.c        ****             case WAIT_FOR_SCAN_COMPLETE:
 134:main.c        ****                 /* Put the device to CPU Sleep until CapSense scanning is complete*/
 135:main.c        ****                 if(CapSense_NOT_BUSY != CapSense_IsBusy())
 136:main.c        ****                 {
 137:main.c        ****                     CySysPmSleep();
 138:main.c        ****                 }
 139:main.c        ****                 /* If CapSense scanning is complete, process the CapSense data */
 140:main.c        ****                 else
 141:main.c        ****                 {
 142:main.c        ****                     currentState = PROCESS_DATA;
ARM GAS  C:\Users\rpbri\AppData\Local\Temp\ccb6sQes.s 			page 6


 143              		.loc 1 142 0
 144 0012 0324     		movs	r4, #3
 145              	.LVL14:
 146              	.L9:
 147              	.LBE3:
 119:main.c        ****         {
 148              		.loc 1 119 0
 149 0014 022C     		cmp	r4, #2
 150 0016 0BD0     		beq	.L10
 151 0018 032C     		cmp	r4, #3
 152 001a 10D0     		beq	.L11
 153 001c 012C     		cmp	r4, #1
 154 001e F9D1     		bne	.L9
 155              	.LBB4:
 123:main.c        ****                 {
 156              		.loc 1 123 0
 157 0020 FFF7FEFF 		bl	CapSense_IsBusy
 158              	.LVL15:
 159 0024 0028     		cmp	r0, #0
 160 0026 F5D1     		bne	.L9
 126:main.c        ****                                         
 161              		.loc 1 126 0
 162 0028 FFF7FEFF 		bl	CapSense_ScanAllWidgets
 163              	.LVL16:
 129:main.c        ****                 }
 164              		.loc 1 129 0
 165 002c 0134     		adds	r4, r4, #1
 166 002e F1E7     		b	.L9
 167              	.LVL17:
 168              	.L10:
 135:main.c        ****                 {
 169              		.loc 1 135 0
 170 0030 FFF7FEFF 		bl	CapSense_IsBusy
 171              	.LVL18:
 172 0034 0028     		cmp	r0, #0
 173 0036 ECD0     		beq	.L21
 137:main.c        ****                 }
 174              		.loc 1 137 0
 175 0038 FFF7FEFF 		bl	CySysPmSleep
 176              	.LVL19:
 177 003c EAE7     		b	.L9
 178              	.L11:
 143:main.c        ****                 }
 144:main.c        ****                 break;
 145:main.c        ****         
 146:main.c        ****             case PROCESS_DATA:
 147:main.c        ****                 /* Process data on all the enabled widgets */
 148:main.c        ****                 CapSense_ProcessAllWidgets();
 179              		.loc 1 148 0
 180 003e FFF7FEFF 		bl	CapSense_ProcessAllWidgets
 181              	.LVL20:
 149:main.c        ****                 
 150:main.c        ****                 /* Get the touch position(centroid) of CapSense Linear Slider. */
 151:main.c        ****                 uint32 centroid = CapSense_GetCentroidPos(CapSense_SLD_WDGT_ID);
 182              		.loc 1 151 0
 183 0042 0320     		movs	r0, #3
 184 0044 FFF7FEFF 		bl	CapSense_GetCentroidPos
ARM GAS  C:\Users\rpbri\AppData\Local\Temp\ccb6sQes.s 			page 7


 185              	.LVL21:
 186 0048 0500     		movs	r5, r0
 187              	.LVL22:
 152:main.c        **** 
 153:main.c        ****                 /*Turn ON/OFF LEDs based on the finger position (centroid) on the CapSense Linear s
 154:main.c        ****                 if(CapSense_IsWidgetActive(CapSense_SLD_WDGT_ID))
 188              		.loc 1 154 0
 189 004a 0320     		movs	r0, #3
 190              	.LVL23:
 191 004c FFF7FEFF 		bl	CapSense_IsWidgetActive
 192              	.LVL24:
 193 0050 0028     		cmp	r0, #0
 194 0052 29D0     		beq	.L14
 155:main.c        ****                 {
 156:main.c        ****                     LED4_Write( ( (centroid > 0) || (centroid == 0)) ? LED_ON : LED_OFF );
 195              		.loc 1 156 0
 196 0054 0020     		movs	r0, #0
 197 0056 FFF7FEFF 		bl	LED4_Write
 198              	.LVL25:
 157:main.c        ****                     LED5_Write( ( centroid > ( 1 * STEP_SIZE ) ) ? LED_ON : LED_OFF );
 199              		.loc 1 157 0
 200 005a 0024     		movs	r4, #0
 201              	.LVL26:
 202 005c 1423     		movs	r3, #20
 203 005e 2000     		movs	r0, r4
 204 0060 AB42     		cmp	r3, r5
 205 0062 6041     		adcs	r0, r0, r4
 206 0064 C0B2     		uxtb	r0, r0
 207 0066 FFF7FEFF 		bl	LED5_Write
 208              	.LVL27:
 158:main.c        ****                     LED6_Write( ( centroid > ( 2 * STEP_SIZE ) ) ? LED_ON : LED_OFF );
 209              		.loc 1 158 0
 210 006a 2823     		movs	r3, #40
 211 006c 2000     		movs	r0, r4
 212 006e AB42     		cmp	r3, r5
 213 0070 6041     		adcs	r0, r0, r4
 214 0072 C0B2     		uxtb	r0, r0
 215 0074 FFF7FEFF 		bl	LED6_Write
 216              	.LVL28:
 159:main.c        ****                     LED7_Write( ( centroid > ( 3 * STEP_SIZE ) ) ? LED_ON : LED_OFF );
 217              		.loc 1 159 0
 218 0078 3C23     		movs	r3, #60
 219 007a 2000     		movs	r0, r4
 220 007c AB42     		cmp	r3, r5
 221 007e 6041     		adcs	r0, r0, r4
 222 0080 C0B2     		uxtb	r0, r0
 223 0082 FFF7FEFF 		bl	LED7_Write
 224              	.LVL29:
 160:main.c        ****                     LED8_Write( ( centroid > ( 4 * STEP_SIZE ) ) ? LED_ON : LED_OFF );
 225              		.loc 1 160 0
 226 0086 5023     		movs	r3, #80
 227 0088 AB42     		cmp	r3, r5
 228 008a 6441     		adcs	r4, r4, r4
 229 008c E0B2     		uxtb	r0, r4
 230 008e FFF7FEFF 		bl	LED8_Write
 231              	.LVL30:
 161:main.c        ****                     
ARM GAS  C:\Users\rpbri\AppData\Local\Temp\ccb6sQes.s 			page 8


 162:main.c        ****                     value = (double)centroid / (double)CapSense_SLD_X_RESOLUTION;
 232              		.loc 1 162 0
 233 0092 2800     		movs	r0, r5
 234 0094 FFF7FEFF 		bl	__aeabi_ui2d
 235              	.LVL31:
 236 0098 0022     		movs	r2, #0
 237 009a 274B     		ldr	r3, .L22+4
 238 009c FFF7FEFF 		bl	__aeabi_ddiv
 239              	.LVL32:
 240 00a0 264B     		ldr	r3, .L22+8
 241 00a2 1860     		str	r0, [r3]
 242 00a4 5960     		str	r1, [r3, #4]
 243 00a6 0EE0     		b	.L15
 244              	.LVL33:
 245              	.L14:
 163:main.c        ****                 }
 164:main.c        ****                 else
 165:main.c        ****                 {
 166:main.c        ****                     LED4_Write(LED_OFF);
 246              		.loc 1 166 0
 247 00a8 0120     		movs	r0, #1
 248 00aa FFF7FEFF 		bl	LED4_Write
 249              	.LVL34:
 167:main.c        ****                     LED5_Write(LED_OFF);
 250              		.loc 1 167 0
 251 00ae 0120     		movs	r0, #1
 252 00b0 FFF7FEFF 		bl	LED5_Write
 253              	.LVL35:
 168:main.c        ****                     LED6_Write(LED_OFF);
 254              		.loc 1 168 0
 255 00b4 0120     		movs	r0, #1
 256 00b6 FFF7FEFF 		bl	LED6_Write
 257              	.LVL36:
 169:main.c        ****                     LED7_Write(LED_OFF);
 258              		.loc 1 169 0
 259 00ba 0120     		movs	r0, #1
 260 00bc FFF7FEFF 		bl	LED7_Write
 261              	.LVL37:
 170:main.c        ****                     LED8_Write(LED_OFF);
 262              		.loc 1 170 0
 263 00c0 0120     		movs	r0, #1
 264 00c2 FFF7FEFF 		bl	LED8_Write
 265              	.LVL38:
 266              	.L15:
 171:main.c        ****                 }
 172:main.c        ****                
 173:main.c        ****                 /*Turn ON/OFF LEDs based on the status of the corresponding CapSense buttons*/
 174:main.c        ****                 if(CapSense_IsWidgetActive(CapSense_BTN0_WDGT_ID))
 267              		.loc 1 174 0
 268 00c6 0020     		movs	r0, #0
 269 00c8 FFF7FEFF 		bl	CapSense_IsWidgetActive
 270              	.LVL39:
 271 00cc 0028     		cmp	r0, #0
 272 00ce 08D0     		beq	.L16
 175:main.c        ****                 {
 176:main.c        ****                     LED9_Write(LED_ON);
 273              		.loc 1 176 0
ARM GAS  C:\Users\rpbri\AppData\Local\Temp\ccb6sQes.s 			page 9


 274 00d0 0020     		movs	r0, #0
 275 00d2 FFF7FEFF 		bl	LED9_Write
 276              	.LVL40:
 177:main.c        ****                     
 178:main.c        ****                     value = 1;
 277              		.loc 1 178 0
 278 00d6 0020     		movs	r0, #0
 279 00d8 1949     		ldr	r1, .L22+12
 280 00da 184B     		ldr	r3, .L22+8
 281 00dc 1860     		str	r0, [r3]
 282 00de 5960     		str	r1, [r3, #4]
 283 00e0 02E0     		b	.L17
 284              	.L16:
 179:main.c        ****                 }
 180:main.c        ****                 else
 181:main.c        ****                 {
 182:main.c        ****                     LED9_Write(LED_OFF);
 285              		.loc 1 182 0
 286 00e2 0120     		movs	r0, #1
 287 00e4 FFF7FEFF 		bl	LED9_Write
 288              	.LVL41:
 289              	.L17:
 183:main.c        ****                 }
 184:main.c        ****                 //LED9_Write(CapSense_IsWidgetActive(CapSense_BTN0_WDGT_ID) ? LED_ON : LED_OFF );
 185:main.c        ****                 if(CapSense_IsWidgetActive(CapSense_BTN1_WDGT_ID))
 290              		.loc 1 185 0
 291 00e8 0120     		movs	r0, #1
 292 00ea FFF7FEFF 		bl	CapSense_IsWidgetActive
 293              	.LVL42:
 294 00ee 0028     		cmp	r0, #0
 295 00f0 08D0     		beq	.L18
 186:main.c        ****                 {
 187:main.c        ****                     LED10_Write(LED_ON);
 296              		.loc 1 187 0
 297 00f2 0020     		movs	r0, #0
 298 00f4 FFF7FEFF 		bl	LED10_Write
 299              	.LVL43:
 188:main.c        ****                     
 189:main.c        ****                     value = 0.5;
 300              		.loc 1 189 0
 301 00f8 0020     		movs	r0, #0
 302 00fa 1249     		ldr	r1, .L22+16
 303 00fc 0F4B     		ldr	r3, .L22+8
 304 00fe 1860     		str	r0, [r3]
 305 0100 5960     		str	r1, [r3, #4]
 306 0102 02E0     		b	.L19
 307              	.L18:
 190:main.c        ****                 }
 191:main.c        ****                 else
 192:main.c        ****                 {
 193:main.c        ****                     LED10_Write(LED_OFF);
 308              		.loc 1 193 0
 309 0104 0120     		movs	r0, #1
 310 0106 FFF7FEFF 		bl	LED10_Write
 311              	.LVL44:
 312              	.L19:
 194:main.c        ****                 }
ARM GAS  C:\Users\rpbri\AppData\Local\Temp\ccb6sQes.s 			page 10


 195:main.c        ****                 //LED10_Write(CapSense_IsWidgetActive(CapSense_BTN1_WDGT_ID) ? LED_ON : LED_OFF );
 196:main.c        ****                 if(CapSense_IsWidgetActive(CapSense_BTN2_WDGT_ID))
 313              		.loc 1 196 0
 314 010a 0220     		movs	r0, #2
 315 010c FFF7FEFF 		bl	CapSense_IsWidgetActive
 316              	.LVL45:
 317 0110 0028     		cmp	r0, #0
 318 0112 09D0     		beq	.L20
 197:main.c        ****                 {
 198:main.c        ****                     LED11_Write(LED_ON);
 319              		.loc 1 198 0
 320 0114 0020     		movs	r0, #0
 321 0116 FFF7FEFF 		bl	LED11_Write
 322              	.LVL46:
 199:main.c        ****                     
 200:main.c        ****                     value = 0;
 323              		.loc 1 200 0
 324 011a 0020     		movs	r0, #0
 325 011c 0021     		movs	r1, #0
 326 011e 074B     		ldr	r3, .L22+8
 327 0120 1860     		str	r0, [r3]
 328 0122 5960     		str	r1, [r3, #4]
 201:main.c        ****                 }
 202:main.c        ****                 else
 203:main.c        ****                 {
 204:main.c        ****                     LED11_Write(LED_OFF);
 205:main.c        ****                 }
 206:main.c        ****                 //LED11_Write(CapSense_IsWidgetActive(CapSense_BTN2_WDGT_ID) ? LED_ON : LED_OFF );
 207:main.c        ****                 
 208:main.c        ****                 /* Set the device state to SENSOR_SCAN */
 209:main.c        ****                 currentState = SENSOR_SCAN;  
 329              		.loc 1 209 0
 330 0124 0124     		movs	r4, #1
 331 0126 75E7     		b	.L9
 332              	.L20:
 204:main.c        ****                 }
 333              		.loc 1 204 0
 334 0128 0120     		movs	r0, #1
 335 012a FFF7FEFF 		bl	LED11_Write
 336              	.LVL47:
 337              		.loc 1 209 0
 338 012e 0124     		movs	r4, #1
 339 0130 70E7     		b	.L9
 340              	.L23:
 341 0132 C046     		.align	2
 342              	.L22:
 343 0134 00000000 		.word	Pin_ZC_Handler
 344 0138 00005940 		.word	1079574528
 345 013c 00000000 		.word	value
 346 0140 0000F03F 		.word	1072693248
 347 0144 0000E03F 		.word	1071644672
 348              	.LBE4:
 349              		.cfi_endproc
 350              	.LFE34:
 351              		.size	main, .-main
 352              		.comm	value,8,8
 353              		.text
ARM GAS  C:\Users\rpbri\AppData\Local\Temp\ccb6sQes.s 			page 11


 354              	.Letext0:
 355              		.file 2 "Generated_Source\\PSoC4/cytypes.h"
 356              		.file 3 "Generated_Source\\PSoC4/CyLib.h"
 357              		.file 4 "Generated_Source\\PSoC4/Pin_LC.h"
 358              		.file 5 "Generated_Source\\PSoC4/Pin_ZC.h"
 359              		.file 6 "Generated_Source\\PSoC4/CapSense_Sensing.h"
 360              		.file 7 "Generated_Source\\PSoC4/cyPm.h"
 361              		.file 8 "Generated_Source\\PSoC4/CapSense_Control.h"
 362              		.file 9 "Generated_Source\\PSoC4/CapSense_Structure.h"
 363              		.file 10 "Generated_Source\\PSoC4/LED4.h"
 364              		.file 11 "Generated_Source\\PSoC4/LED5.h"
 365              		.file 12 "Generated_Source\\PSoC4/LED6.h"
 366              		.file 13 "Generated_Source\\PSoC4/LED7.h"
 367              		.file 14 "Generated_Source\\PSoC4/LED8.h"
 368              		.file 15 "Generated_Source\\PSoC4/LED9.h"
 369              		.file 16 "Generated_Source\\PSoC4/LED10.h"
 370              		.file 17 "Generated_Source\\PSoC4/LED11.h"
 371              		.file 18 "Generated_Source\\PSoC4/Pin_ZC_Int.h"